target datalayout = "e-m:e-p270:32:32-p271:32:32-p272:64:64-i64:64-i128:128-f80:128-n8:16:32:64-S128"
target triple = "x86_64-pc-linux-gnu"

@.str.16 = private unnamed_addr constant [17 x i8] c"CVodeGetNumSteps\00", align 1
@.str.17 = private unnamed_addr constant [20 x i8] c"CVodeGetNumRhsEvals\00", align 1
@.str.18 = private unnamed_addr constant [25 x i8] c"CVodeGetNumLinSolvSetups\00", align 1
@.str.19 = private unnamed_addr constant [24 x i8] c"CVodeGetNumErrTestFails\00", align 1
@.str.20 = private unnamed_addr constant [27 x i8] c"CVodeGetNumNonlinSolvIters\00", align 1
@.str.21 = private unnamed_addr constant [31 x i8] c"CVodeGetNumNonlinSolvConvFails\00", align 1
@.str.22 = private unnamed_addr constant [26 x i8] c"CVodeGetNumStepSolveFails\00", align 1
@.str.23 = private unnamed_addr constant [20 x i8] c"CVodeGetNumJacEvals\00", align 1
@.str.24 = private unnamed_addr constant [23 x i8] c"CVodeGetNumLinRhsEvals\00", align 1
@.str.25 = private unnamed_addr constant [18 x i8] c"CVodeGetNumGEvals\00", align 1
@.str.26 = private unnamed_addr constant [20 x i8] c"\0AFinal Statistics:\0A\00", align 1
@.str.27 = private unnamed_addr constant [65 x i8] c"nst = %-6ld nfe = %-6ld nsetups = %-6ld nfeLS = %-6ld nje = %ld\0A\00", align 1
@.str.28 = private unnamed_addr constant [66 x i8] c"nni = %-6ld nnf = %-6ld netf = %-6ld    ncfn = %-6ld  nge = %ld\0A\0A\00", align 1
@stderr = external global ptr, align 8
@.str.29 = private unnamed_addr constant [55 x i8] c"\0ASUNDIALS_ERROR: %s() failed - returned NULL pointer\0A\0A\00", align 1
@.str.30 = private unnamed_addr constant [48 x i8] c"\0ASUNDIALS_ERROR: %s() failed with retval = %d\0A\0A\00", align 1
@.str.31 = private unnamed_addr constant [53 x i8] c"\0AMEMORY_ERROR: %s() failed - returned NULL pointer\0A\0A\00", align 1

; Function Attrs: nounwind uwtable
define internal i32 @check_retval(ptr noundef %0, ptr noundef %1, i32 noundef %2) #0 {
  %4 = alloca i32, align 4
  %5 = alloca ptr, align 8
  %6 = alloca ptr, align 8
  %7 = alloca i32, align 4
  %8 = alloca ptr, align 8
  %9 = alloca i32, align 4
  store ptr %0, ptr %5, align 8, !tbaa !13
  store ptr %1, ptr %6, align 8, !tbaa !27
  store i32 %2, ptr %7, align 4, !tbaa !14
  call void @llvm.lifetime.start.p0(i64 8, ptr %8) #5
  %10 = load i32, ptr %7, align 4, !tbaa !14
  %11 = icmp eq i32 %10, 0
  br i1 %11, label %12, label %19

12:                                               ; preds = %3
  %13 = load ptr, ptr %5, align 8, !tbaa !13
  %14 = icmp eq ptr %13, null
  br i1 %14, label %15, label %19

15:                                               ; preds = %12
  %16 = load ptr, ptr @stderr, align 8, !tbaa !29
  %17 = load ptr, ptr %6, align 8, !tbaa !27
  %18 = call i32 (ptr, ptr, ...) @fprintf(ptr noundef %16, ptr noundef @.str.29, ptr noundef %17) #5
  store i32 1, ptr %4, align 4
  store i32 1, ptr %9, align 4
  br label %47

19:                                               ; preds = %12, %3
  %20 = load i32, ptr %7, align 4, !tbaa !14
  %21 = icmp eq i32 %20, 1
  br i1 %21, label %22, label %34

22:                                               ; preds = %19
  %23 = load ptr, ptr %5, align 8, !tbaa !13
  store ptr %23, ptr %8, align 8, !tbaa !31
  %24 = load ptr, ptr %8, align 8, !tbaa !31
  %25 = load i32, ptr %24, align 4, !tbaa !14
  %26 = icmp slt i32 %25, 0
  br i1 %26, label %27, label %33

27:                                               ; preds = %22
  %28 = load ptr, ptr @stderr, align 8, !tbaa !29
  %29 = load ptr, ptr %6, align 8, !tbaa !27
  %30 = load ptr, ptr %8, align 8, !tbaa !31
  %31 = load i32, ptr %30, align 4, !tbaa !14
  %32 = call i32 (ptr, ptr, ...) @fprintf(ptr noundef %28, ptr noundef @.str.30, ptr noundef %29, i32 noundef %31) #5
  store i32 1, ptr %4, align 4
  store i32 1, ptr %9, align 4
  br label %47

33:                                               ; preds = %22
  br label %45

34:                                               ; preds = %19
  %35 = load i32, ptr %7, align 4, !tbaa !14
  %36 = icmp eq i32 %35, 2
  br i1 %36, label %37, label %44

37:                                               ; preds = %34
  %38 = load ptr, ptr %5, align 8, !tbaa !13
  %39 = icmp eq ptr %38, null
  br i1 %39, label %40, label %44

40:                                               ; preds = %37
  %41 = load ptr, ptr @stderr, align 8, !tbaa !29
  %42 = load ptr, ptr %6, align 8, !tbaa !27
  %43 = call i32 (ptr, ptr, ...) @fprintf(ptr noundef %41, ptr noundef @.str.31, ptr noundef %42) #5
  store i32 1, ptr %4, align 4
  store i32 1, ptr %9, align 4
  br label %47

44:                                               ; preds = %37, %34
  br label %45

45:                                               ; preds = %44, %33
  br label %46

46:                                               ; preds = %45
  store i32 0, ptr %4, align 4
  store i32 1, ptr %9, align 4
  br label %47

47:                                               ; preds = %46, %40, %27, %15
  call void @llvm.lifetime.end.p0(i64 8, ptr %8) #5
  %48 = load i32, ptr %4, align 4
  ret i32 %48
}

; Function Attrs: nounwind uwtable
define internal void @PrintFinalStats(ptr noundef %0) #0 {
  %2 = alloca ptr, align 8
  %3 = alloca i64, align 8
  %4 = alloca i64, align 8
  %5 = alloca i64, align 8
  %6 = alloca i64, align 8
  %7 = alloca i64, align 8
  %8 = alloca i64, align 8
  %9 = alloca i64, align 8
  %10 = alloca i64, align 8
  %11 = alloca i64, align 8
  %12 = alloca i64, align 8
  %13 = alloca i32, align 4
  store ptr %0, ptr %2, align 8, !tbaa !13
  call void @llvm.lifetime.start.p0(i64 8, ptr %3) #5
  call void @llvm.lifetime.start.p0(i64 8, ptr %4) #5
  call void @llvm.lifetime.start.p0(i64 8, ptr %5) #5
  call void @llvm.lifetime.start.p0(i64 8, ptr %6) #5
  call void @llvm.lifetime.start.p0(i64 8, ptr %7) #5
  call void @llvm.lifetime.start.p0(i64 8, ptr %8) #5
  call void @llvm.lifetime.start.p0(i64 8, ptr %9) #5
  call void @llvm.lifetime.start.p0(i64 8, ptr %10) #5
  call void @llvm.lifetime.start.p0(i64 8, ptr %11) #5
  call void @llvm.lifetime.start.p0(i64 8, ptr %12) #5
  call void @llvm.lifetime.start.p0(i64 4, ptr %13) #5
  %14 = load ptr, ptr %2, align 8, !tbaa !13
  %15 = call i32 @CVodeGetNumSteps(ptr noundef %14, ptr noundef %3)
  store i32 %15, ptr %13, align 4, !tbaa !14
  %16 = call i32 @check_retval(ptr noundef %13, ptr noundef @.str.16, i32 noundef 1)
  %17 = load ptr, ptr %2, align 8, !tbaa !13
  %18 = call i32 @CVodeGetNumRhsEvals(ptr noundef %17, ptr noundef %4)
  store i32 %18, ptr %13, align 4, !tbaa !14
  %19 = call i32 @check_retval(ptr noundef %13, ptr noundef @.str.17, i32 noundef 1)
  %20 = load ptr, ptr %2, align 8, !tbaa !13
  %21 = call i32 @CVodeGetNumLinSolvSetups(ptr noundef %20, ptr noundef %5)
  store i32 %21, ptr %13, align 4, !tbaa !14
  %22 = call i32 @check_retval(ptr noundef %13, ptr noundef @.str.18, i32 noundef 1)
  %23 = load ptr, ptr %2, align 8, !tbaa !13
  %24 = call i32 @CVodeGetNumErrTestFails(ptr noundef %23, ptr noundef %11)
  store i32 %24, ptr %13, align 4, !tbaa !14
  %25 = call i32 @check_retval(ptr noundef %13, ptr noundef @.str.19, i32 noundef 1)
  %26 = load ptr, ptr %2, align 8, !tbaa !13
  %27 = call i32 @CVodeGetNumNonlinSolvIters(ptr noundef %26, ptr noundef %8)
  store i32 %27, ptr %13, align 4, !tbaa !14
  %28 = call i32 @check_retval(ptr noundef %13, ptr noundef @.str.20, i32 noundef 1)
  %29 = load ptr, ptr %2, align 8, !tbaa !13
  %30 = call i32 @CVodeGetNumNonlinSolvConvFails(ptr noundef %29, ptr noundef %9)
  store i32 %30, ptr %13, align 4, !tbaa !14
  %31 = call i32 @check_retval(ptr noundef %13, ptr noundef @.str.21, i32 noundef 1)
  %32 = load ptr, ptr %2, align 8, !tbaa !13
  %33 = call i32 @CVodeGetNumStepSolveFails(ptr noundef %32, ptr noundef %10)
  store i32 %33, ptr %13, align 4, !tbaa !14
  %34 = call i32 @check_retval(ptr noundef %13, ptr noundef @.str.22, i32 noundef 1)
  %35 = load ptr, ptr %2, align 8, !tbaa !13
  %36 = call i32 @CVodeGetNumJacEvals(ptr noundef %35, ptr noundef %6)
  store i32 %36, ptr %13, align 4, !tbaa !14
  %37 = call i32 @check_retval(ptr noundef %13, ptr noundef @.str.23, i32 noundef 1)
  %38 = load ptr, ptr %2, align 8, !tbaa !13
  %39 = call i32 @CVodeGetNumLinRhsEvals(ptr noundef %38, ptr noundef %7)
  store i32 %39, ptr %13, align 4, !tbaa !14
  %40 = call i32 @check_retval(ptr noundef %13, ptr noundef @.str.24, i32 noundef 1)
  %41 = load ptr, ptr %2, align 8, !tbaa !13
  %42 = call i32 @CVodeGetNumGEvals(ptr noundef %41, ptr noundef %12)
  store i32 %42, ptr %13, align 4, !tbaa !14
  %43 = call i32 @check_retval(ptr noundef %13, ptr noundef @.str.25, i32 noundef 1)
  %44 = call i32 (ptr, ...) @printf(ptr noundef @.str.26)
  %45 = load i64, ptr %3, align 8, !tbaa !40
  %46 = load i64, ptr %4, align 8, !tbaa !40
  %47 = load i64, ptr %5, align 8, !tbaa !40
  %48 = load i64, ptr %7, align 8, !tbaa !40
  %49 = load i64, ptr %6, align 8, !tbaa !40
  %50 = call i32 (ptr, ...) @printf(ptr noundef @.str.27, i64 noundef %45, i64 noundef %46, i64 noundef %47, i64 noundef %48, i64 noundef %49)
  %51 = load i64, ptr %8, align 8, !tbaa !40
  %52 = load i64, ptr %9, align 8, !tbaa !40
  %53 = load i64, ptr %11, align 8, !tbaa !40
  %54 = load i64, ptr %10, align 8, !tbaa !40
  %55 = load i64, ptr %12, align 8, !tbaa !40
  %56 = call i32 (ptr, ...) @printf(ptr noundef @.str.28, i64 noundef %51, i64 noundef %52, i64 noundef %53, i64 noundef %54, i64 noundef %55)
  call void @llvm.lifetime.end.p0(i64 4, ptr %13) #5
  call void @llvm.lifetime.end.p0(i64 8, ptr %12) #5
  call void @llvm.lifetime.end.p0(i64 8, ptr %11) #5
  call void @llvm.lifetime.end.p0(i64 8, ptr %10) #5
  call void @llvm.lifetime.end.p0(i64 8, ptr %9) #5
  call void @llvm.lifetime.end.p0(i64 8, ptr %8) #5
  call void @llvm.lifetime.end.p0(i64 8, ptr %7) #5
  call void @llvm.lifetime.end.p0(i64 8, ptr %6) #5
  call void @llvm.lifetime.end.p0(i64 8, ptr %5) #5
  call void @llvm.lifetime.end.p0(i64 8, ptr %4) #5
  call void @llvm.lifetime.end.p0(i64 8, ptr %3) #5
  ret void
}