; Function Attrs: nounwind uwtable
define internal fastcc void @PrintFinalStats(ptr noundef %0) unnamed_addr #0 {
  %2 = alloca i64, align 8
  %3 = alloca i64, align 8
  %4 = alloca i64, align 8
  %5 = alloca i64, align 8
  %6 = alloca i64, align 8
  %7 = alloca i64, align 8
  %8 = alloca i64, align 8
  %9 = alloca i64, align 8
  %10 = alloca i64, align 8
  %11 = alloca i64, align 8
  call void @llvm.lifetime.start.p0(i64 8, ptr nonnull %2) #9
  call void @llvm.lifetime.start.p0(i64 8, ptr nonnull %3) #9
  call void @llvm.lifetime.start.p0(i64 8, ptr nonnull %4) #9
  call void @llvm.lifetime.start.p0(i64 8, ptr nonnull %5) #9
  call void @llvm.lifetime.start.p0(i64 8, ptr nonnull %6) #9
  call void @llvm.lifetime.start.p0(i64 8, ptr nonnull %7) #9
  call void @llvm.lifetime.start.p0(i64 8, ptr nonnull %8) #9
  call void @llvm.lifetime.start.p0(i64 8, ptr nonnull %9) #9
  call void @llvm.lifetime.start.p0(i64 8, ptr nonnull %10) #9
  call void @llvm.lifetime.start.p0(i64 8, ptr nonnull %11) #9
  %12 = call i32 @CVodeGetNumSteps(ptr noundef %0, ptr noundef nonnull %2) #9
  %13 = icmp slt i32 %12, 0
  br i1 %13, label %14, label %check_retval.exit

14:                                               ; preds = %1
  %15 = load ptr, ptr @stderr, align 8, !tbaa !4
  %16 = call i32 (ptr, ptr, ...) @fprintf(ptr noundef %15, ptr noundef nonnull @.str.30, ptr noundef nonnull @.str.16, i32 noundef %12) #10
  br label %check_retval.exit

check_retval.exit:                                ; preds = %1, %14
  %17 = call i32 @CVodeGetNumRhsEvals(ptr noundef %0, ptr noundef nonnull %3) #9
  %18 = icmp slt i32 %17, 0
  br i1 %18, label %19, label %check_retval.exit11

19:                                               ; preds = %check_retval.exit
  %20 = load ptr, ptr @stderr, align 8, !tbaa !4
  %21 = call i32 (ptr, ptr, ...) @fprintf(ptr noundef %20, ptr noundef nonnull @.str.30, ptr noundef nonnull @.str.17, i32 noundef %17) #10
  br label %check_retval.exit11

check_retval.exit11:                              ; preds = %check_retval.exit, %19
  %22 = call i32 @CVodeGetNumLinSolvSetups(ptr noundef %0, ptr noundef nonnull %4) #9
  %23 = icmp slt i32 %22, 0
  br i1 %23, label %24, label %check_retval.exit13

24:                                               ; preds = %check_retval.exit11
  %25 = load ptr, ptr @stderr, align 8, !tbaa !4
  %26 = call i32 (ptr, ptr, ...) @fprintf(ptr noundef %25, ptr noundef nonnull @.str.30, ptr noundef nonnull @.str.18, i32 noundef %22) #10
  br label %check_retval.exit13

check_retval.exit13:                              ; preds = %check_retval.exit11, %24
  %27 = call i32 @CVodeGetNumErrTestFails(ptr noundef %0, ptr noundef nonnull %10) #9
  %28 = icmp slt i32 %27, 0
  br i1 %28, label %29, label %check_retval.exit15

29:                                               ; preds = %check_retval.exit13
  %30 = load ptr, ptr @stderr, align 8, !tbaa !4
  %31 = call i32 (ptr, ptr, ...) @fprintf(ptr noundef %30, ptr noundef nonnull @.str.30, ptr noundef nonnull @.str.19, i32 noundef %27) #10
  br label %check_retval.exit15

check_retval.exit15:                              ; preds = %check_retval.exit13, %29
  %32 = call i32 @CVodeGetNumNonlinSolvIters(ptr noundef %0, ptr noundef nonnull %7) #9
  %33 = icmp slt i32 %32, 0
  br i1 %33, label %34, label %check_retval.exit17

34:                                               ; preds = %check_retval.exit15
  %35 = load ptr, ptr @stderr, align 8, !tbaa !4
  %36 = call i32 (ptr, ptr, ...) @fprintf(ptr noundef %35, ptr noundef nonnull @.str.30, ptr noundef nonnull @.str.20, i32 noundef %32) #10
  br label %check_retval.exit17

check_retval.exit17:                              ; preds = %check_retval.exit15, %34
  %37 = call i32 @CVodeGetNumNonlinSolvConvFails(ptr noundef %0, ptr noundef nonnull %8) #9
  %38 = icmp slt i32 %37, 0
  br i1 %38, label %39, label %check_retval.exit19

39:                                               ; preds = %check_retval.exit17
  %40 = load ptr, ptr @stderr, align 8, !tbaa !4
  %41 = call i32 (ptr, ptr, ...) @fprintf(ptr noundef %40, ptr noundef nonnull @.str.30, ptr noundef nonnull @.str.21, i32 noundef %37) #10
  br label %check_retval.exit19

check_retval.exit19:                              ; preds = %check_retval.exit17, %39
  %42 = call i32 @CVodeGetNumStepSolveFails(ptr noundef %0, ptr noundef nonnull %9) #9
  %43 = icmp slt i32 %42, 0
  br i1 %43, label %44, label %check_retval.exit21

44:                                               ; preds = %check_retval.exit19
  %45 = load ptr, ptr @stderr, align 8, !tbaa !4
  %46 = call i32 (ptr, ptr, ...) @fprintf(ptr noundef %45, ptr noundef nonnull @.str.30, ptr noundef nonnull @.str.22, i32 noundef %42) #10
  br label %check_retval.exit21

check_retval.exit21:                              ; preds = %check_retval.exit19, %44
  %47 = call i32 @CVodeGetNumJacEvals(ptr noundef %0, ptr noundef nonnull %5) #9
  %48 = icmp slt i32 %47, 0
  br i1 %48, label %49, label %check_retval.exit23

49:                                               ; preds = %check_retval.exit21
  %50 = load ptr, ptr @stderr, align 8, !tbaa !4
  %51 = call i32 (ptr, ptr, ...) @fprintf(ptr noundef %50, ptr noundef nonnull @.str.30, ptr noundef nonnull @.str.23, i32 noundef %47) #10
  br label %check_retval.exit23

check_retval.exit23:                              ; preds = %check_retval.exit21, %49
  %52 = call i32 @CVodeGetNumLinRhsEvals(ptr noundef %0, ptr noundef nonnull %6) #9
  %53 = icmp slt i32 %52, 0
  br i1 %53, label %54, label %check_retval.exit25

54:                                               ; preds = %check_retval.exit23
  %55 = load ptr, ptr @stderr, align 8, !tbaa !4
  %56 = call i32 (ptr, ptr, ...) @fprintf(ptr noundef %55, ptr noundef nonnull @.str.30, ptr noundef nonnull @.str.24, i32 noundef %52) #10
  br label %check_retval.exit25

check_retval.exit25:                              ; preds = %check_retval.exit23, %54
  %57 = call i32 @CVodeGetNumGEvals(ptr noundef %0, ptr noundef nonnull %11) #9
  %58 = icmp slt i32 %57, 0
  br i1 %58, label %59, label %check_retval.exit27

59:                                               ; preds = %check_retval.exit25
  %60 = load ptr, ptr @stderr, align 8, !tbaa !4
  %61 = call i32 (ptr, ptr, ...) @fprintf(ptr noundef %60, ptr noundef nonnull @.str.30, ptr noundef nonnull @.str.25, i32 noundef %57) #10
  br label %check_retval.exit27

check_retval.exit27:                              ; preds = %check_retval.exit25, %59
  %puts = call i32 @puts(ptr nonnull dereferenceable(1) @str.1)
  %62 = load i64, ptr %2, align 8, !tbaa !30
  %63 = load i64, ptr %3, align 8, !tbaa !30
  %64 = load i64, ptr %4, align 8, !tbaa !30
  %65 = load i64, ptr %6, align 8, !tbaa !30
  %66 = load i64, ptr %5, align 8, !tbaa !30
  %67 = call i32 (ptr, ...) @printf(ptr noundef nonnull dereferenceable(1) @.str.27, i64 noundef %62, i64 noundef %63, i64 noundef %64, i64 noundef %65, i64 noundef %66)
  %68 = load i64, ptr %7, align 8, !tbaa !30
  %69 = load i64, ptr %8, align 8, !tbaa !30
  %70 = load i64, ptr %10, align 8, !tbaa !30
  %71 = load i64, ptr %9, align 8, !tbaa !30
  %72 = load i64, ptr %11, align 8, !tbaa !30
  %73 = call i32 (ptr, ...) @printf(ptr noundef nonnull dereferenceable(1) @.str.28, i64 noundef %68, i64 noundef %69, i64 noundef %70, i64 noundef %71, i64 noundef %72)
  call void @llvm.lifetime.end.p0(i64 8, ptr nonnull %11) #9
  call void @llvm.lifetime.end.p0(i64 8, ptr nonnull %10) #9
  call void @llvm.lifetime.end.p0(i64 8, ptr nonnull %9) #9
  call void @llvm.lifetime.end.p0(i64 8, ptr nonnull %8) #9
  call void @llvm.lifetime.end.p0(i64 8, ptr nonnull %7) #9
  call void @llvm.lifetime.end.p0(i64 8, ptr nonnull %6) #9
  call void @llvm.lifetime.end.p0(i64 8, ptr nonnull %5) #9
  call void @llvm.lifetime.end.p0(i64 8, ptr nonnull %4) #9
  call void @llvm.lifetime.end.p0(i64 8, ptr nonnull %3) #9
  call void @llvm.lifetime.end.p0(i64 8, ptr nonnull %2) #9
  ret void
}